target datalayout = "e-m:e-p270:32:32-p271:32:32-p272:64:64-i64:64-i128:128-f80:128-n8:16:32:64-S128"
target triple = "x86_64-pc-linux-gnu"

%struct.VP8Io = type { i32, i32, i32, i32, i32, ptr, ptr, ptr, i32, i32, ptr, ptr, ptr, ptr, i32, i64, ptr, i32, i32, i32, i32, i32, i32, i32, i32, i32, ptr }
%struct.WebPDecParams = type { ptr, ptr, ptr, ptr, i32, ptr, ptr, ptr, ptr, ptr, ptr, ptr, ptr, ptr }
%struct.WebPDecBuffer = type { i32, i32, i32, i32, %union.anon, [4 x i32], ptr }
%union.anon = type { %struct.WebPYUVABuffer }
%struct.WebPYUVABuffer = type { ptr, ptr, ptr, ptr, i32, i32, i32, i32, i64, i64, i64, i64 }

; Function Attrs: inlinehint nounwind uwtable
define internal i32 @WebPIsPremultipliedMode(i32 noundef %0) #2 {
  %2 = alloca i32, align 4
  store i32 %0, ptr %2, align 4, !tbaa !19
  %3 = load i32, ptr %2, align 4, !tbaa !19
  %4 = icmp eq i32 %3, 7
  br i1 %4, label %14, label %5

5:                                                ; preds = %1
  %6 = load i32, ptr %2, align 4, !tbaa !19
  %7 = icmp eq i32 %6, 8
  br i1 %7, label %14, label %8

8:                                                ; preds = %5
  %9 = load i32, ptr %2, align 4, !tbaa !19
  %10 = icmp eq i32 %9, 9
  br i1 %10, label %14, label %11

11:                                               ; preds = %8
  %12 = load i32, ptr %2, align 4, !tbaa !19
  %13 = icmp eq i32 %12, 10
  br label %14

14:                                               ; preds = %11, %8, %5, %1
  %15 = phi i1 [ true, %8 ], [ true, %5 ], [ true, %1 ], [ %13, %11 ]
  %16 = zext i1 %15 to i32
  ret i32 %16
}

; Function Attrs: nounwind uwtable
define internal i32 @Rescale(ptr noundef %0, i32 noundef %1, i32 noundef %2, ptr noundef %3) #0 {
  %5 = alloca ptr, align 8
  %6 = alloca i32, align 4
  %7 = alloca i32, align 4
  %8 = alloca ptr, align 8
  %9 = alloca i32, align 4
  %10 = alloca i32, align 4
  store ptr %0, ptr %5, align 8, !tbaa !44
  store i32 %1, ptr %6, align 4, !tbaa !19
  store i32 %2, ptr %7, align 4, !tbaa !19
  store ptr %3, ptr %8, align 8, !tbaa !45
  call void @llvm.lifetime.start.p0(i64 4, ptr %9) #6
  store i32 0, ptr %9, align 4, !tbaa !19
  br label %11

11:                                               ; preds = %14, %4
  %12 = load i32, ptr %7, align 4, !tbaa !19
  %13 = icmp sgt i32 %12, 0
  br i1 %13, label %14, label %33

14:                                               ; preds = %11
  call void @llvm.lifetime.start.p0(i64 4, ptr %10) #6
  %15 = load ptr, ptr %8, align 8, !tbaa !45
  %16 = load i32, ptr %7, align 4, !tbaa !19
  %17 = load ptr, ptr %5, align 8, !tbaa !44
  %18 = load i32, ptr %6, align 4, !tbaa !19
  %19 = call i32 @WebPRescalerImport(ptr noundef %15, i32 noundef %16, ptr noundef %17, i32 noundef %18)
  store i32 %19, ptr %10, align 4, !tbaa !19
  %20 = load i32, ptr %10, align 4, !tbaa !19
  %21 = load i32, ptr %6, align 4, !tbaa !19
  %22 = mul nsw i32 %20, %21
  %23 = load ptr, ptr %5, align 8, !tbaa !44
  %24 = sext i32 %22 to i64
  %25 = getelementptr inbounds i8, ptr %23, i64 %24
  store ptr %25, ptr %5, align 8, !tbaa !44
  %26 = load i32, ptr %10, align 4, !tbaa !19
  %27 = load i32, ptr %7, align 4, !tbaa !19
  %28 = sub nsw i32 %27, %26
  store i32 %28, ptr %7, align 4, !tbaa !19
  %29 = load ptr, ptr %8, align 8, !tbaa !45
  %30 = call i32 @WebPRescalerExport(ptr noundef %29)
  %31 = load i32, ptr %9, align 4, !tbaa !19
  %32 = add nsw i32 %31, %30
  store i32 %32, ptr %9, align 4, !tbaa !19
  call void @llvm.lifetime.end.p0(i64 4, ptr %10) #6
  br label %11, !llvm.loop !97

33:                                               ; preds = %11
  %34 = load i32, ptr %9, align 4, !tbaa !19
  call void @llvm.lifetime.end.p0(i64 4, ptr %9) #6
  ret i32 %34
}

; Function Attrs: inlinehint nounwind uwtable
define internal i32 @WebPIsAlphaMode(i32 noundef %0) #2 {
  %2 = alloca i32, align 4
  store i32 %0, ptr %2, align 4, !tbaa !19
  %3 = load i32, ptr %2, align 4, !tbaa !19
  %4 = icmp eq i32 %3, 1
  br i1 %4, label %21, label %5

5:                                                ; preds = %1
  %6 = load i32, ptr %2, align 4, !tbaa !19
  %7 = icmp eq i32 %6, 3
  br i1 %7, label %21, label %8

8:                                                ; preds = %5
  %9 = load i32, ptr %2, align 4, !tbaa !19
  %10 = icmp eq i32 %9, 4
  br i1 %10, label %21, label %11

11:                                               ; preds = %8
  %12 = load i32, ptr %2, align 4, !tbaa !19
  %13 = icmp eq i32 %12, 5
  br i1 %13, label %21, label %14

14:                                               ; preds = %11
  %15 = load i32, ptr %2, align 4, !tbaa !19
  %16 = icmp eq i32 %15, 12
  br i1 %16, label %21, label %17

17:                                               ; preds = %14
  %18 = load i32, ptr %2, align 4, !tbaa !19
  %19 = call i32 @WebPIsPremultipliedMode(i32 noundef %18)
  %20 = icmp ne i32 %19, 0
  br label %21

21:                                               ; preds = %17, %14, %11, %8, %5, %1
  %22 = phi i1 [ true, %14 ], [ true, %11 ], [ true, %8 ], [ true, %5 ], [ true, %1 ], [ %20, %17 ]
  %23 = zext i1 %22 to i32
  ret i32 %23
}

; Function Attrs: nounwind uwtable
define internal i32 @EmitRescaledYUV(ptr noundef %0, ptr noundef %1) #0 {
  %3 = alloca ptr, align 8
  %4 = alloca ptr, align 8
  %5 = alloca i32, align 4
  %6 = alloca i32, align 4
  %7 = alloca ptr, align 8
  %8 = alloca i32, align 4
  store ptr %0, ptr %3, align 8, !tbaa !8
  store ptr %1, ptr %4, align 8, !tbaa !3
  call void @llvm.lifetime.start.p0(i64 4, ptr %5) #6
  %9 = load ptr, ptr %3, align 8, !tbaa !8
  %10 = getelementptr inbounds nuw %struct.VP8Io, ptr %9, i32 0, i32 4
  %11 = load i32, ptr %10, align 8, !tbaa !20
  store i32 %11, ptr %5, align 4, !tbaa !19
  call void @llvm.lifetime.start.p0(i64 4, ptr %6) #6
  %12 = load i32, ptr %5, align 4, !tbaa !19
  %13 = add nsw i32 %12, 1
  %14 = ashr i32 %13, 1
  store i32 %14, ptr %6, align 4, !tbaa !19
  call void @llvm.lifetime.start.p0(i64 8, ptr %7) #6
  %15 = load ptr, ptr %4, align 8, !tbaa !3
  %16 = getelementptr inbounds nuw %struct.WebPDecParams, ptr %15, i32 0, i32 6
  %17 = load ptr, ptr %16, align 8, !tbaa !46
  store ptr %17, ptr %7, align 8, !tbaa !45
  call void @llvm.lifetime.start.p0(i64 4, ptr %8) #6
  store i32 0, ptr %8, align 4, !tbaa !19
  %18 = load ptr, ptr %4, align 8, !tbaa !3
  %19 = getelementptr inbounds nuw %struct.WebPDecParams, ptr %18, i32 0, i32 0
  %20 = load ptr, ptr %19, align 8, !tbaa !28
  %21 = getelementptr inbounds nuw %struct.WebPDecBuffer, ptr %20, i32 0, i32 0
  %22 = load i32, ptr %21, align 8, !tbaa !29
  %23 = call i32 @WebPIsAlphaMode(i32 noundef %22)
  %24 = icmp ne i32 %23, 0
  br i1 %24, label %25, label %47

25:                                               ; preds = %2
  %26 = load ptr, ptr %3, align 8, !tbaa !8
  %27 = getelementptr inbounds nuw %struct.VP8Io, ptr %26, i32 0, i32 26
  %28 = load ptr, ptr %27, align 8, !tbaa !78
  %29 = icmp ne ptr %28, null
  br i1 %29, label %30, label %47

30:                                               ; preds = %25
  %31 = load ptr, ptr %3, align 8, !tbaa !8
  %32 = getelementptr inbounds nuw %struct.VP8Io, ptr %31, i32 0, i32 5
  %33 = load ptr, ptr %32, align 8, !tbaa !68
  %34 = load ptr, ptr %3, align 8, !tbaa !8
  %35 = getelementptr inbounds nuw %struct.VP8Io, ptr %34, i32 0, i32 8
  %36 = load i32, ptr %35, align 8, !tbaa !69
  %37 = load ptr, ptr %3, align 8, !tbaa !8
  %38 = getelementptr inbounds nuw %struct.VP8Io, ptr %37, i32 0, i32 26
  %39 = load ptr, ptr %38, align 8, !tbaa !78
  %40 = load ptr, ptr %3, align 8, !tbaa !8
  %41 = getelementptr inbounds nuw %struct.VP8Io, ptr %40, i32 0, i32 0
  %42 = load i32, ptr %41, align 8, !tbaa !81
  %43 = load ptr, ptr %3, align 8, !tbaa !8
  %44 = getelementptr inbounds nuw %struct.VP8Io, ptr %43, i32 0, i32 3
  %45 = load i32, ptr %44, align 4, !tbaa !18
  %46 = load i32, ptr %5, align 4, !tbaa !19
  call void @WebPMultRows(ptr noundef %33, i32 noundef %36, ptr noundef %39, i32 noundef %42, i32 noundef %45, i32 noundef %46, i32 noundef 0)
  br label %47

47:                                               ; preds = %30, %25, %2
  %48 = load ptr, ptr %3, align 8, !tbaa !8
  %49 = getelementptr inbounds nuw %struct.VP8Io, ptr %48, i32 0, i32 5
  %50 = load ptr, ptr %49, align 8, !tbaa !68
  %51 = load ptr, ptr %3, align 8, !tbaa !8
  %52 = getelementptr inbounds nuw %struct.VP8Io, ptr %51, i32 0, i32 8
  %53 = load i32, ptr %52, align 8, !tbaa !69
  %54 = load i32, ptr %5, align 4, !tbaa !19
  %55 = load ptr, ptr %7, align 8, !tbaa !45
  %56 = call i32 @Rescale(ptr noundef %50, i32 noundef %53, i32 noundef %54, ptr noundef %55)
  store i32 %56, ptr %8, align 4, !tbaa !19
  %57 = load ptr, ptr %3, align 8, !tbaa !8
  %58 = getelementptr inbounds nuw %struct.VP8Io, ptr %57, i32 0, i32 6
  %59 = load ptr, ptr %58, align 8, !tbaa !70
  %60 = load ptr, ptr %3, align 8, !tbaa !8
  %61 = getelementptr inbounds nuw %struct.VP8Io, ptr %60, i32 0, i32 9
  %62 = load i32, ptr %61, align 4, !tbaa !72
  %63 = load i32, ptr %6, align 4, !tbaa !19
  %64 = load ptr, ptr %4, align 8, !tbaa !3
  %65 = getelementptr inbounds nuw %struct.WebPDecParams, ptr %64, i32 0, i32 7
  %66 = load ptr, ptr %65, align 8, !tbaa !47
  %67 = call i32 @Rescale(ptr noundef %59, i32 noundef %62, i32 noundef %63, ptr noundef %66)
  %68 = load ptr, ptr %3, align 8, !tbaa !8
  %69 = getelementptr inbounds nuw %struct.VP8Io, ptr %68, i32 0, i32 7
  %70 = load ptr, ptr %69, align 8, !tbaa !71
  %71 = load ptr, ptr %3, align 8, !tbaa !8
  %72 = getelementptr inbounds nuw %struct.VP8Io, ptr %71, i32 0, i32 9
  %73 = load i32, ptr %72, align 4, !tbaa !72
  %74 = load i32, ptr %6, align 4, !tbaa !19
  %75 = load ptr, ptr %4, align 8, !tbaa !3
  %76 = getelementptr inbounds nuw %struct.WebPDecParams, ptr %75, i32 0, i32 8
  %77 = load ptr, ptr %76, align 8, !tbaa !48
  %78 = call i32 @Rescale(ptr noundef %70, i32 noundef %73, i32 noundef %74, ptr noundef %77)
  %79 = load i32, ptr %8, align 4, !tbaa !19
  call void @llvm.lifetime.end.p0(i64 4, ptr %8) #6
  call void @llvm.lifetime.end.p0(i64 8, ptr %7) #6
  call void @llvm.lifetime.end.p0(i64 4, ptr %6) #6
  call void @llvm.lifetime.end.p0(i64 4, ptr %5) #6
  ret i32 %79
}