; Function Attrs: nounwind uwtable
define internal i32 @EmitRescaledYUV(ptr noundef readonly captures(none) %0, ptr noundef readonly captures(none) %1) #1 {
  %3 = getelementptr inbounds nuw i8, ptr %0, i64 16
  %4 = load i32, ptr %3, align 8, !tbaa !15
  %5 = getelementptr inbounds nuw i8, ptr %1, i64 48
  %6 = load ptr, ptr %5, align 8, !tbaa !31
  %7 = load ptr, ptr %1, align 8, !tbaa !23
  %8 = load i32, ptr %7, align 8, !tbaa !24
  switch i32 %8, label %WebPIsAlphaMode.exit [
    i32 12, label %WebPIsAlphaMode.exit.thread
    i32 5, label %WebPIsAlphaMode.exit.thread
    i32 4, label %WebPIsAlphaMode.exit.thread
    i32 3, label %WebPIsAlphaMode.exit.thread
    i32 1, label %WebPIsAlphaMode.exit.thread
  ]

WebPIsAlphaMode.exit:                             ; preds = %2
  %9 = add i32 %8, -11
  %narrow.i.i = icmp ult i32 %9, -4
  br i1 %narrow.i.i, label %20, label %WebPIsAlphaMode.exit.thread

WebPIsAlphaMode.exit.thread:                      ; preds = %2, %2, %2, %2, %2, %WebPIsAlphaMode.exit
  %10 = getelementptr inbounds nuw i8, ptr %0, i64 152
  %11 = load ptr, ptr %10, align 8, !tbaa !63
  %.not23 = icmp eq ptr %11, null
  br i1 %.not23, label %20, label %12

12:                                               ; preds = %WebPIsAlphaMode.exit.thread
  %13 = getelementptr inbounds nuw i8, ptr %0, i64 24
  %14 = load ptr, ptr %13, align 8, !tbaa !53
  %15 = getelementptr inbounds nuw i8, ptr %0, i64 48
  %16 = load i32, ptr %15, align 8, !tbaa !54
  %17 = load i32, ptr %0, align 8, !tbaa !64
  %18 = getelementptr inbounds nuw i8, ptr %0, i64 12
  %19 = load i32, ptr %18, align 4, !tbaa !14
  tail call void @WebPMultRows(ptr noundef %14, i32 noundef %16, ptr noundef nonnull %11, i32 noundef %17, i32 noundef %19, i32 noundef %4, i32 noundef 0) #6
  br label %20

20:                                               ; preds = %12, %WebPIsAlphaMode.exit.thread, %WebPIsAlphaMode.exit
  %21 = add nsw i32 %4, 1
  %22 = ashr i32 %21, 1
  %23 = getelementptr inbounds nuw i8, ptr %0, i64 48
  %24 = load i32, ptr %23, align 8, !tbaa !54
  %25 = icmp sgt i32 %4, 0
  br i1 %25, label %.lr.ph.i.preheader, label %Rescale.exit

.lr.ph.i.preheader:                               ; preds = %20
  %26 = getelementptr inbounds nuw i8, ptr %0, i64 24
  %27 = load ptr, ptr %26, align 8, !tbaa !53
  br label %.lr.ph.i

.lr.ph.i:                                         ; preds = %.lr.ph.i.preheader, %.lr.ph.i
  %.016.i = phi ptr [ %31, %.lr.ph.i ], [ %27, %.lr.ph.i.preheader ]
  %.01215.i = phi i32 [ %34, %.lr.ph.i ], [ 0, %.lr.ph.i.preheader ]
  %.01314.i = phi i32 [ %32, %.lr.ph.i ], [ %4, %.lr.ph.i.preheader ]
  %28 = tail call i32 @WebPRescalerImport(ptr noundef %6, i32 noundef %.01314.i, ptr noundef %.016.i, i32 noundef %24) #6
  %29 = mul nsw i32 %28, %24
  %30 = sext i32 %29 to i64
  %31 = getelementptr inbounds i8, ptr %.016.i, i64 %30
  %32 = sub nsw i32 %.01314.i, %28
  %33 = tail call i32 @WebPRescalerExport(ptr noundef %6) #6
  %34 = add nsw i32 %33, %.01215.i
  %35 = icmp sgt i32 %32, 0
  br i1 %35, label %.lr.ph.i, label %Rescale.exit, !llvm.loop !84

Rescale.exit:                                     ; preds = %.lr.ph.i, %20
  %.012.lcssa.i = phi i32 [ 0, %20 ], [ %34, %.lr.ph.i ]
  %36 = getelementptr inbounds nuw i8, ptr %0, i64 52
  %37 = load i32, ptr %36, align 4, !tbaa !57
  %38 = getelementptr inbounds nuw i8, ptr %1, i64 56
  %39 = load ptr, ptr %38, align 8, !tbaa !32
  %40 = icmp sgt i32 %22, 0
  br i1 %40, label %.lr.ph.i25.preheader, label %Rescale.exit35

.lr.ph.i25.preheader:                             ; preds = %Rescale.exit
  %41 = getelementptr inbounds nuw i8, ptr %0, i64 32
  %42 = load ptr, ptr %41, align 8, !tbaa !55
  br label %.lr.ph.i25

.lr.ph.i25:                                       ; preds = %.lr.ph.i25.preheader, %.lr.ph.i25
  %.016.i26 = phi ptr [ %46, %.lr.ph.i25 ], [ %42, %.lr.ph.i25.preheader ]
  %.01314.i28 = phi i32 [ %47, %.lr.ph.i25 ], [ %22, %.lr.ph.i25.preheader ]
  %43 = tail call i32 @WebPRescalerImport(ptr noundef %39, i32 noundef %.01314.i28, ptr noundef %.016.i26, i32 noundef %37) #6
  %44 = mul nsw i32 %43, %37
  %45 = sext i32 %44 to i64
  %46 = getelementptr inbounds i8, ptr %.016.i26, i64 %45
  %47 = sub nsw i32 %.01314.i28, %43
  %48 = tail call i32 @WebPRescalerExport(ptr noundef %39) #6
  %49 = icmp sgt i32 %47, 0
  br i1 %49, label %.lr.ph.i25, label %Rescale.exit29, !llvm.loop !84

Rescale.exit29:                                   ; preds = %.lr.ph.i25
  %50 = getelementptr inbounds nuw i8, ptr %0, i64 40
  %51 = load ptr, ptr %50, align 8, !tbaa !56
  %52 = load i32, ptr %36, align 4, !tbaa !57
  %53 = getelementptr inbounds nuw i8, ptr %1, i64 64
  %54 = load ptr, ptr %53, align 8, !tbaa !33
  br label %.lr.ph.i31

.lr.ph.i31:                                       ; preds = %Rescale.exit29, %.lr.ph.i31
  %.016.i32 = phi ptr [ %58, %.lr.ph.i31 ], [ %51, %Rescale.exit29 ]
  %.01314.i34 = phi i32 [ %59, %.lr.ph.i31 ], [ %22, %Rescale.exit29 ]
  %55 = tail call i32 @WebPRescalerImport(ptr noundef %54, i32 noundef %.01314.i34, ptr noundef %.016.i32, i32 noundef %52) #6
  %56 = mul nsw i32 %55, %52
  %57 = sext i32 %56 to i64
  %58 = getelementptr inbounds i8, ptr %.016.i32, i64 %57
  %59 = sub nsw i32 %.01314.i34, %55
  %60 = tail call i32 @WebPRescalerExport(ptr noundef %54) #6
  %61 = icmp sgt i32 %59, 0
  br i1 %61, label %.lr.ph.i31, label %Rescale.exit35, !llvm.loop !84

Rescale.exit35:                                   ; preds = %.lr.ph.i31, %Rescale.exit
  ret i32 %.012.lcssa.i
}